target datalayout = "e-m:e-p270:32:32-p271:32:32-p272:64:64-i64:64-i128:128-f80:128-n8:16:32:64-S128"
target triple = "x86_64-pc-linux-gnu"

%struct.VP8LHistogram = type { ptr, [256 x i32], [256 x i32], [256 x i32], [40 x i32], i32, i32, i64, i64, i64, i64, [5 x i8] }

@VP8LExtraCost = external global ptr, align 8

; Function Attrs: inlinehint nounwind uwtable
define internal i32 @VP8LHistogramNumCodes(i32 noundef %0) #3 {
  %2 = alloca i32, align 4
  store i32 %0, ptr %2, align 4, !tbaa !14
  %3 = load i32, ptr %2, align 4, !tbaa !14
  %4 = icmp sgt i32 %3, 0
  br i1 %4, label %5, label %8

5:                                                ; preds = %1
  %6 = load i32, ptr %2, align 4, !tbaa !14
  %7 = shl i32 1, %6
  br label %9

8:                                                ; preds = %1
  br label %9

9:                                                ; preds = %8, %5
  %10 = phi i32 [ %7, %5 ], [ 0, %8 ]
  %11 = add nsw i32 280, %10
  ret i32 %11
}

; Function Attrs: nounwind uwtable
define internal void @UpdateHistogramCost(ptr noundef %0) #0 {
  %2 = alloca ptr, align 8
  %3 = alloca i32, align 4
  %4 = alloca i32, align 4
  %5 = alloca i32, align 4
  %6 = alloca i64, align 8
  %7 = alloca i64, align 8
  %8 = alloca i32, align 4
  store ptr %0, ptr %2, align 8, !tbaa !3
  call void @llvm.lifetime.start.p0(i64 4, ptr %3) #7
  call void @llvm.lifetime.start.p0(i64 4, ptr %4) #7
  call void @llvm.lifetime.start.p0(i64 4, ptr %5) #7
  call void @llvm.lifetime.start.p0(i64 8, ptr %6) #7
  %9 = load ptr, ptr %2, align 8, !tbaa !3
  %10 = getelementptr inbounds nuw %struct.VP8LHistogram, ptr %9, i32 0, i32 3
  %11 = getelementptr inbounds [256 x i32], ptr %10, i64 0, i64 0
  %12 = load ptr, ptr %2, align 8, !tbaa !3
  %13 = getelementptr inbounds nuw %struct.VP8LHistogram, ptr %12, i32 0, i32 11
  %14 = getelementptr inbounds [5 x i8], ptr %13, i64 0, i64 3
  %15 = call i64 @PopulationCost(ptr noundef %11, i32 noundef 256, ptr noundef %3, ptr noundef %14)
  store i64 %15, ptr %6, align 8, !tbaa !30
  call void @llvm.lifetime.start.p0(i64 8, ptr %7) #7
  %16 = load ptr, ptr %2, align 8, !tbaa !3
  %17 = getelementptr inbounds nuw %struct.VP8LHistogram, ptr %16, i32 0, i32 4
  %18 = getelementptr inbounds [40 x i32], ptr %17, i64 0, i64 0
  %19 = load ptr, ptr %2, align 8, !tbaa !3
  %20 = getelementptr inbounds nuw %struct.VP8LHistogram, ptr %19, i32 0, i32 11
  %21 = getelementptr inbounds [5 x i8], ptr %20, i64 0, i64 4
  %22 = call i64 @PopulationCost(ptr noundef %18, i32 noundef 40, ptr noundef null, ptr noundef %21)
  %23 = load ptr, ptr @VP8LExtraCost, align 8, !tbaa !3
  %24 = load ptr, ptr %2, align 8, !tbaa !3
  %25 = getelementptr inbounds nuw %struct.VP8LHistogram, ptr %24, i32 0, i32 4
  %26 = getelementptr inbounds [40 x i32], ptr %25, i64 0, i64 0
  %27 = call i32 %23(ptr noundef %26, i32 noundef 40)
  %28 = zext i32 %27 to i64
  %29 = shl i64 %28, 23
  %30 = add i64 %22, %29
  store i64 %30, ptr %7, align 8, !tbaa !30
  call void @llvm.lifetime.start.p0(i64 4, ptr %8) #7
  %31 = load ptr, ptr %2, align 8, !tbaa !3
  %32 = getelementptr inbounds nuw %struct.VP8LHistogram, ptr %31, i32 0, i32 5
  %33 = load i32, ptr %32, align 8, !tbaa !21
  %34 = call i32 @VP8LHistogramNumCodes(i32 noundef %33)
  store i32 %34, ptr %8, align 4, !tbaa !14
  %35 = load ptr, ptr %2, align 8, !tbaa !3
  %36 = getelementptr inbounds nuw %struct.VP8LHistogram, ptr %35, i32 0, i32 0
  %37 = load ptr, ptr %36, align 8, !tbaa !16
  %38 = load i32, ptr %8, align 4, !tbaa !14
  %39 = load ptr, ptr %2, align 8, !tbaa !3
  %40 = getelementptr inbounds nuw %struct.VP8LHistogram, ptr %39, i32 0, i32 11
  %41 = getelementptr inbounds [5 x i8], ptr %40, i64 0, i64 0
  %42 = call i64 @PopulationCost(ptr noundef %37, i32 noundef %38, ptr noundef null, ptr noundef %41)
  %43 = load ptr, ptr @VP8LExtraCost, align 8, !tbaa !3
  %44 = load ptr, ptr %2, align 8, !tbaa !3
  %45 = getelementptr inbounds nuw %struct.VP8LHistogram, ptr %44, i32 0, i32 0
  %46 = load ptr, ptr %45, align 8, !tbaa !16
  %47 = getelementptr inbounds i32, ptr %46, i64 256
  %48 = call i32 %43(ptr noundef %47, i32 noundef 24)
  %49 = zext i32 %48 to i64
  %50 = shl i64 %49, 23
  %51 = add i64 %42, %50
  %52 = load ptr, ptr %2, align 8, !tbaa !3
  %53 = getelementptr inbounds nuw %struct.VP8LHistogram, ptr %52, i32 0, i32 8
  store i64 %51, ptr %53, align 8, !tbaa !25
  %54 = load ptr, ptr %2, align 8, !tbaa !3
  %55 = getelementptr inbounds nuw %struct.VP8LHistogram, ptr %54, i32 0, i32 1
  %56 = getelementptr inbounds [256 x i32], ptr %55, i64 0, i64 0
  %57 = load ptr, ptr %2, align 8, !tbaa !3
  %58 = getelementptr inbounds nuw %struct.VP8LHistogram, ptr %57, i32 0, i32 11
  %59 = getelementptr inbounds [5 x i8], ptr %58, i64 0, i64 1
  %60 = call i64 @PopulationCost(ptr noundef %56, i32 noundef 256, ptr noundef %4, ptr noundef %59)
  %61 = load ptr, ptr %2, align 8, !tbaa !3
  %62 = getelementptr inbounds nuw %struct.VP8LHistogram, ptr %61, i32 0, i32 9
  store i64 %60, ptr %62, align 8, !tbaa !26
  %63 = load ptr, ptr %2, align 8, !tbaa !3
  %64 = getelementptr inbounds nuw %struct.VP8LHistogram, ptr %63, i32 0, i32 2
  %65 = getelementptr inbounds [256 x i32], ptr %64, i64 0, i64 0
  %66 = load ptr, ptr %2, align 8, !tbaa !3
  %67 = getelementptr inbounds nuw %struct.VP8LHistogram, ptr %66, i32 0, i32 11
  %68 = getelementptr inbounds [5 x i8], ptr %67, i64 0, i64 2
  %69 = call i64 @PopulationCost(ptr noundef %65, i32 noundef 256, ptr noundef %5, ptr noundef %68)
  %70 = load ptr, ptr %2, align 8, !tbaa !3
  %71 = getelementptr inbounds nuw %struct.VP8LHistogram, ptr %70, i32 0, i32 10
  store i64 %69, ptr %71, align 8, !tbaa !27
  %72 = load ptr, ptr %2, align 8, !tbaa !3
  %73 = getelementptr inbounds nuw %struct.VP8LHistogram, ptr %72, i32 0, i32 8
  %74 = load i64, ptr %73, align 8, !tbaa !25
  %75 = load ptr, ptr %2, align 8, !tbaa !3
  %76 = getelementptr inbounds nuw %struct.VP8LHistogram, ptr %75, i32 0, i32 9
  %77 = load i64, ptr %76, align 8, !tbaa !26
  %78 = add i64 %74, %77
  %79 = load ptr, ptr %2, align 8, !tbaa !3
  %80 = getelementptr inbounds nuw %struct.VP8LHistogram, ptr %79, i32 0, i32 10
  %81 = load i64, ptr %80, align 8, !tbaa !27
  %82 = add i64 %78, %81
  %83 = load i64, ptr %6, align 8, !tbaa !30
  %84 = add i64 %82, %83
  %85 = load i64, ptr %7, align 8, !tbaa !30
  %86 = add i64 %84, %85
  %87 = load ptr, ptr %2, align 8, !tbaa !3
  %88 = getelementptr inbounds nuw %struct.VP8LHistogram, ptr %87, i32 0, i32 7
  store i64 %86, ptr %88, align 8, !tbaa !24
  %89 = load i32, ptr %3, align 4, !tbaa !14
  %90 = load i32, ptr %4, align 4, !tbaa !14
  %91 = or i32 %89, %90
  %92 = load i32, ptr %5, align 4, !tbaa !14
  %93 = or i32 %91, %92
  %94 = icmp eq i32 %93, -1
  br i1 %94, label %95, label %98

95:                                               ; preds = %1
  %96 = load ptr, ptr %2, align 8, !tbaa !3
  %97 = getelementptr inbounds nuw %struct.VP8LHistogram, ptr %96, i32 0, i32 6
  store i32 -1, ptr %97, align 4, !tbaa !23
  br label %109

98:                                               ; preds = %1
  %99 = load i32, ptr %3, align 4, !tbaa !14
  %100 = shl i32 %99, 24
  %101 = load i32, ptr %4, align 4, !tbaa !14
  %102 = shl i32 %101, 16
  %103 = or i32 %100, %102
  %104 = load i32, ptr %5, align 4, !tbaa !14
  %105 = shl i32 %104, 0
  %106 = or i32 %103, %105
  %107 = load ptr, ptr %2, align 8, !tbaa !3
  %108 = getelementptr inbounds nuw %struct.VP8LHistogram, ptr %107, i32 0, i32 6
  store i32 %106, ptr %108, align 4, !tbaa !23
  br label %109

109:                                              ; preds = %98, %95
  call void @llvm.lifetime.end.p0(i64 4, ptr %8) #7
  call void @llvm.lifetime.end.p0(i64 8, ptr %7) #7
  call void @llvm.lifetime.end.p0(i64 8, ptr %6) #7
  call void @llvm.lifetime.end.p0(i64 4, ptr %5) #7
  call void @llvm.lifetime.end.p0(i64 4, ptr %4) #7
  call void @llvm.lifetime.end.p0(i64 4, ptr %3) #7
  ret void
}