; Function Attrs: nounwind uwtable
define internal fastcc void @UpdateHistogramCost(ptr noundef %0) unnamed_addr #0 {
  %2 = alloca i32, align 4
  %3 = alloca i32, align 4
  %4 = alloca i32, align 4
  call void @llvm.lifetime.start.p0(i64 4, ptr nonnull %2) #10
  call void @llvm.lifetime.start.p0(i64 4, ptr nonnull %3) #10
  call void @llvm.lifetime.start.p0(i64 4, ptr nonnull %4) #10
  %5 = getelementptr inbounds nuw i8, ptr %0, i64 2056
  %6 = getelementptr inbounds nuw i8, ptr %0, i64 3280
  %7 = getelementptr inbounds nuw i8, ptr %0, i64 3283
  %8 = call fastcc i64 @PopulationCost(ptr noundef nonnull %5, i32 noundef 256, ptr noundef nonnull %2, ptr noundef nonnull %7)
  %9 = getelementptr inbounds nuw i8, ptr %0, i64 3080
  %10 = getelementptr inbounds nuw i8, ptr %0, i64 3284
  %11 = call fastcc i64 @PopulationCost(ptr noundef nonnull %9, i32 noundef 40, ptr noundef null, ptr noundef nonnull %10)
  %12 = load ptr, ptr @VP8LExtraCost, align 8, !tbaa !29
  %13 = call i32 %12(ptr noundef nonnull %9, i32 noundef 40) #10
  %14 = zext i32 %13 to i64
  %15 = shl nuw nsw i64 %14, 23
  %16 = getelementptr inbounds nuw i8, ptr %0, i64 3240
  %17 = load i32, ptr %16, align 8, !tbaa !24
  %18 = icmp sgt i32 %17, 0
  %19 = shl nuw i32 1, %17
  %20 = add nuw nsw i32 %19, 280
  %21 = select i1 %18, i32 %20, i32 280
  %22 = load ptr, ptr %0, align 8, !tbaa !18
  %23 = call fastcc i64 @PopulationCost(ptr noundef %22, i32 noundef %21, ptr noundef null, ptr noundef nonnull %6)
  %24 = load ptr, ptr @VP8LExtraCost, align 8, !tbaa !29
  %25 = load ptr, ptr %0, align 8, !tbaa !18
  %26 = getelementptr inbounds nuw i8, ptr %25, i64 1024
  %27 = call i32 %24(ptr noundef nonnull %26, i32 noundef 24) #10
  %28 = zext i32 %27 to i64
  %29 = shl nuw nsw i64 %28, 23
  %30 = add i64 %29, %23
  %31 = getelementptr inbounds nuw i8, ptr %0, i64 3256
  store i64 %30, ptr %31, align 8, !tbaa !42
  %32 = getelementptr inbounds nuw i8, ptr %0, i64 8
  %33 = getelementptr inbounds nuw i8, ptr %0, i64 3281
  %34 = call fastcc i64 @PopulationCost(ptr noundef nonnull %32, i32 noundef 256, ptr noundef nonnull %3, ptr noundef nonnull %33)
  %35 = getelementptr inbounds nuw i8, ptr %0, i64 3264
  store i64 %34, ptr %35, align 8, !tbaa !43
  %36 = getelementptr inbounds nuw i8, ptr %0, i64 1032
  %37 = getelementptr inbounds nuw i8, ptr %0, i64 3282
  %38 = call fastcc i64 @PopulationCost(ptr noundef nonnull %36, i32 noundef 256, ptr noundef nonnull %4, ptr noundef nonnull %37)
  %39 = getelementptr inbounds nuw i8, ptr %0, i64 3272
  store i64 %38, ptr %39, align 8, !tbaa !44
  %40 = load i64, ptr %31, align 8, !tbaa !42
  %41 = load i64, ptr %35, align 8, !tbaa !43
  %42 = add i64 %11, %8
  %43 = add i64 %42, %15
  %44 = add i64 %43, %38
  %45 = add i64 %44, %40
  %46 = add i64 %45, %41
  %47 = getelementptr inbounds nuw i8, ptr %0, i64 3248
  store i64 %46, ptr %47, align 8, !tbaa !52
  %48 = load i32, ptr %2, align 4, !tbaa !17
  %49 = load i32, ptr %3, align 4, !tbaa !17
  %50 = or i32 %49, %48
  %51 = load i32, ptr %4, align 4, !tbaa !17
  %52 = or i32 %50, %51
  %53 = icmp eq i32 %52, -1
  %54 = shl i32 %48, 24
  %55 = shl i32 %49, 16
  %56 = or i32 %55, %54
  %57 = or i32 %56, %51
  %.sink = select i1 %53, i32 -1, i32 %57
  %58 = getelementptr inbounds nuw i8, ptr %0, i64 3244
  store i32 %.sink, ptr %58, align 4, !tbaa !53
  call void @llvm.lifetime.end.p0(i64 4, ptr nonnull %4) #10
  call void @llvm.lifetime.end.p0(i64 4, ptr nonnull %3) #10
  call void @llvm.lifetime.end.p0(i64 4, ptr nonnull %2) #10
  ret void
}